; Function Attrs: mustprogress nofree norecurse nosync nounwind willreturn memory(read, inaccessiblemem: none) uwtable
define internal range(i32 -1, 2) i32 @cmp_aLb(ptr noundef readonly captures(none) %0, ptr noundef readonly captures(none) %1) #8 {
  %3 = load ptr, ptr %0, align 8, !tbaa !73
  %4 = getelementptr inbounds nuw i8, ptr %3, i64 8
  %5 = load i32, ptr %4, align 4, !tbaa !97
  %6 = load ptr, ptr %1, align 8, !tbaa !73
  %7 = getelementptr inbounds nuw i8, ptr %6, i64 8
  %8 = load i32, ptr %7, align 4, !tbaa !97
  %.not = icmp eq i32 %5, %8
  br i1 %.not, label %11, label %9

9:                                                ; preds = %2
  %10 = tail call i32 @llvm.scmp.i32.i32(i32 %5, i32 %8)
  br label %23

11:                                               ; preds = %2
  %12 = getelementptr inbounds nuw i8, ptr %6, i64 12
  %13 = load i32, ptr %12, align 4, !tbaa !98
  %14 = getelementptr inbounds nuw i8, ptr %3, i64 12
  %15 = load i32, ptr %14, align 4, !tbaa !98
  %16 = tail call i32 @llvm.scmp.i32.i32(i32 %15, i32 %13)
  %17 = getelementptr inbounds nuw i8, ptr %6, i64 4
  %18 = getelementptr inbounds nuw i8, ptr %3, i64 4
  %19 = load i32, ptr %17, align 4, !tbaa !96
  %20 = load i32, ptr %18, align 4, !tbaa !96
  %21 = tail call i32 @llvm.scmp.i32.i32(i32 %20, i32 %19)
  %.not18 = icmp eq i32 %20, %19
  %22 = select i1 %.not18, i32 %16, i32 %21
  br label %23

23:                                               ; preds = %11, %9
  %24 = phi i32 [ %10, %9 ], [ %22, %11 ]
  ret i32 %24
}